target datalayout = "e-m:e-p270:32:32-p271:32:32-p272:64:64-i64:64-i128:128-f80:128-n8:16:32:64-S128"
target triple = "x86_64-pc-linux-gnu"

%class.Node = type <{ ptr, ptr, ptr, i32, i32, i32, i32, i32, i32, i32, [4 x i8] }>
%class.CallNode = type { %class.SafePointNode.base, ptr, ptr, float, ptr, ptr }
%class.SafePointNode.base = type <{ %class.MultiNode.base, [4 x i8], ptr, ptr, %class.ReplacedNodes, i8 }>
%class.MultiNode.base = type { %class.Node.base }
%class.Node.base = type <{ ptr, ptr, ptr, i32, i32, i32, i32, i32, i32, i32 }>
%class.ReplacedNodes = type { ptr }
%class.SimpleDUIterator = type { ptr, ptr, ptr }
%class.LoadNode = type { %class.MemNode, i32, i32, ptr }
%class.MemNode = type { %class.Node.base, i8, i8, i8, i8 }

@.str = private unnamed_addr constant [26 x i8] c"write_ref_field_pre_entry\00", align 1

; Function Attrs: mustprogress nounwind uwtable
define linkonce_odr hidden noundef ptr @_ZNK4Node8fast_outEPPS_(ptr noundef nonnull align 8 dereferenceable(52) %0, ptr noundef %1) #1 comdat align 2 {
  %3 = alloca ptr, align 8
  %4 = alloca ptr, align 8
  store ptr %0, ptr %3, align 8
  store ptr %1, ptr %4, align 8
  %5 = load ptr, ptr %4, align 8
  %6 = load ptr, ptr %5, align 8
  ret ptr %6
}

; Function Attrs: mustprogress nounwind uwtable
define linkonce_odr hidden noundef ptr @_ZNK4Node9fast_outsERPPS_(ptr noundef nonnull align 8 dereferenceable(52) %0, ptr noundef nonnull align 8 dereferenceable(8) %1) #1 comdat align 2 {
  %3 = alloca ptr, align 8
  %4 = alloca ptr, align 8
  %5 = alloca ptr, align 8
  store ptr %0, ptr %3, align 8
  store ptr %1, ptr %4, align 8
  %6 = load ptr, ptr %3, align 8
  %7 = getelementptr inbounds %class.Node, ptr %6, i32 0, i32 2
  %8 = load ptr, ptr %7, align 8
  store ptr %8, ptr %5, align 8
  %9 = load ptr, ptr %5, align 8
  %10 = getelementptr inbounds %class.Node, ptr %6, i32 0, i32 5
  %11 = load i32, ptr %10, align 8
  %12 = zext i32 %11 to i64
  %13 = getelementptr inbounds ptr, ptr %9, i64 %12
  %14 = load ptr, ptr %4, align 8
  store ptr %13, ptr %14, align 8
  %15 = load ptr, ptr %5, align 8
  ret ptr %15
}

; Function Attrs: mustprogress nounwind uwtable
define linkonce_odr hidden void @_ZN16SimpleDUIterator4nextEv(ptr noundef nonnull align 8 dereferenceable(24) %0) #1 comdat align 2 {
  %2 = alloca ptr, align 8
  store ptr %0, ptr %2, align 8
  %3 = load ptr, ptr %2, align 8
  %4 = getelementptr inbounds %class.SimpleDUIterator, ptr %3, i32 0, i32 2
  %5 = load ptr, ptr %4, align 8
  %6 = getelementptr inbounds ptr, ptr %5, i32 1
  store ptr %6, ptr %4, align 8
  ret void
}

; Function Attrs: mustprogress nounwind uwtable
define linkonce_odr hidden noundef ptr @_ZNK4Node11as_CallLeafEv(ptr noundef nonnull align 8 dereferenceable(52) %0) #1 comdat align 2 {
  %2 = alloca ptr, align 8
  store ptr %0, ptr %2, align 8
  %3 = load ptr, ptr %2, align 8
  ret ptr %3
}

; Function Attrs: mustprogress nounwind uwtable
define linkonce_odr hidden noundef zeroext i1 @_ZNK4Node11is_CallLeafEv(ptr noundef nonnull align 8 dereferenceable(52) %0) #1 comdat align 2 {
  %2 = alloca ptr, align 8
  store ptr %0, ptr %2, align 8
  %3 = load ptr, ptr %2, align 8
  %4 = getelementptr inbounds %class.Node, ptr %3, i32 0, i32 8
  %5 = load i32, ptr %4, align 4
  %6 = and i32 %5, 63
  %7 = icmp eq i32 %6, 55
  ret i1 %7
}

; Function Attrs: mustprogress nounwind uwtable
define linkonce_odr hidden noundef zeroext i1 @_ZNK4Node8is_StoreEv(ptr noundef nonnull align 8 dereferenceable(52) %0) #1 comdat align 2 {
  %2 = alloca ptr, align 8
  store ptr %0, ptr %2, align 8
  %3 = load ptr, ptr %2, align 8
  %4 = getelementptr inbounds %class.Node, ptr %3, i32 0, i32 8
  %5 = load i32, ptr %4, align 4
  %6 = and i32 %5, 127
  %7 = icmp eq i32 %6, 80
  ret i1 %7
}

; Function Attrs: mustprogress nounwind uwtable
define linkonce_odr hidden noundef zeroext i1 @_ZNK4Node6is_CmpEv(ptr noundef nonnull align 8 dereferenceable(52) %0) #1 comdat align 2 {
  %2 = alloca ptr, align 8
  store ptr %0, ptr %2, align 8
  %3 = load ptr, ptr %2, align 8
  %4 = getelementptr inbounds %class.Node, ptr %3, i32 0, i32 8
  %5 = load i32, ptr %4, align 4
  %6 = and i32 %5, 255
  %7 = icmp eq i32 %6, 192
  ret i1 %7
}

; Function Attrs: mustprogress nounwind uwtable
define linkonce_odr hidden noundef ptr @_ZN16SimpleDUIterator3getEv(ptr noundef nonnull align 8 dereferenceable(24) %0) #1 comdat align 2 {
  %2 = alloca ptr, align 8
  store ptr %0, ptr %2, align 8
  %3 = load ptr, ptr %2, align 8
  %4 = getelementptr inbounds %class.SimpleDUIterator, ptr %3, i32 0, i32 0
  %5 = load ptr, ptr %4, align 8
  %6 = getelementptr inbounds %class.SimpleDUIterator, ptr %3, i32 0, i32 2
  %7 = load ptr, ptr %6, align 8
  %8 = call noundef ptr @_ZNK4Node8fast_outEPPS_(ptr noundef nonnull align 8 dereferenceable(52) %5, ptr noundef %7)
  ret ptr %8
}

; Function Attrs: mustprogress nounwind uwtable
define linkonce_odr hidden noundef zeroext i1 @_ZN16SimpleDUIterator8has_nextEv(ptr noundef nonnull align 8 dereferenceable(24) %0) #1 comdat align 2 {
  %2 = alloca ptr, align 8
  store ptr %0, ptr %2, align 8
  %3 = load ptr, ptr %2, align 8
  %4 = getelementptr inbounds %class.SimpleDUIterator, ptr %3, i32 0, i32 2
  %5 = load ptr, ptr %4, align 8
  %6 = getelementptr inbounds %class.SimpleDUIterator, ptr %3, i32 0, i32 1
  %7 = load ptr, ptr %6, align 8
  %8 = icmp ult ptr %5, %7
  ret i1 %8
}

; Function Attrs: mustprogress nounwind uwtable
define linkonce_odr hidden void @_ZN16SimpleDUIteratorC2EP4Node(ptr noundef nonnull align 8 dereferenceable(24) %0, ptr noundef %1) unnamed_addr #1 comdat align 2 {
  %3 = alloca ptr, align 8
  %4 = alloca ptr, align 8
  store ptr %0, ptr %3, align 8
  store ptr %1, ptr %4, align 8
  %5 = load ptr, ptr %3, align 8
  %6 = getelementptr inbounds %class.SimpleDUIterator, ptr %5, i32 0, i32 0
  %7 = load ptr, ptr %4, align 8
  store ptr %7, ptr %6, align 8
  %8 = getelementptr inbounds %class.SimpleDUIterator, ptr %5, i32 0, i32 2
  %9 = load ptr, ptr %4, align 8
  %10 = getelementptr inbounds %class.SimpleDUIterator, ptr %5, i32 0, i32 1
  %11 = call noundef ptr @_ZNK4Node9fast_outsERPPS_(ptr noundef nonnull align 8 dereferenceable(52) %9, ptr noundef nonnull align 8 dereferenceable(8) %10)
  store ptr %11, ptr %8, align 8
  ret void
}

; Function Attrs: mustprogress nounwind uwtable
define linkonce_odr hidden noundef zeroext i1 @_ZNK4Node10is_DecodeNEv(ptr noundef nonnull align 8 dereferenceable(52) %0) #1 comdat align 2 {
  %2 = alloca ptr, align 8
  store ptr %0, ptr %2, align 8
  %3 = load ptr, ptr %2, align 8
  %4 = getelementptr inbounds %class.Node, ptr %3, i32 0, i32 8
  %5 = load i32, ptr %4, align 4
  %6 = and i32 %5, 1023
  %7 = icmp eq i32 %6, 772
  ret i1 %7
}

; Function Attrs: mustprogress nounwind uwtable
define linkonce_odr hidden noundef ptr @_ZNK4Node10unique_outEv(ptr noundef nonnull align 8 dereferenceable(52) %0) #1 comdat align 2 {
  %2 = alloca ptr, align 8
  store ptr %0, ptr %2, align 8
  %3 = load ptr, ptr %2, align 8
  %4 = getelementptr inbounds %class.Node, ptr %3, i32 0, i32 2
  %5 = load ptr, ptr %4, align 8
  %6 = getelementptr inbounds ptr, ptr %5, i64 0
  %7 = load ptr, ptr %6, align 8
  ret ptr %7
}

; Function Attrs: mustprogress nounwind uwtable
define linkonce_odr hidden noundef i32 @_ZNK4Node6outcntEv(ptr noundef nonnull align 8 dereferenceable(52) %0) #1 comdat align 2 {
  %2 = alloca ptr, align 8
  store ptr %0, ptr %2, align 8
  %3 = load ptr, ptr %2, align 8
  %4 = getelementptr inbounds %class.Node, ptr %3, i32 0, i32 5
  %5 = load i32, ptr %4, align 8
  ret i32 %5
}

; Function Attrs: mustprogress nounwind uwtable
define linkonce_odr hidden noundef zeroext i1 @_ZNK8LoadNode29has_pinned_control_dependencyEv(ptr noundef nonnull align 8 dereferenceable(72) %0) #1 comdat align 2 {
  %2 = alloca ptr, align 8
  store ptr %0, ptr %2, align 8
  %3 = load ptr, ptr %2, align 8
  %4 = getelementptr inbounds %class.LoadNode, ptr %3, i32 0, i32 1
  %5 = load i32, ptr %4, align 8
  %6 = icmp eq i32 %5, 0
  ret i1 %6
}

; Function Attrs: mustprogress nounwind uwtable
define linkonce_odr hidden noundef ptr @_ZNK4Node7as_LoadEv(ptr noundef nonnull align 8 dereferenceable(52) %0) #1 comdat align 2 {
  %2 = alloca ptr, align 8
  store ptr %0, ptr %2, align 8
  %3 = load ptr, ptr %2, align 8
  ret ptr %3
}

; Function Attrs: mustprogress nounwind uwtable
define linkonce_odr hidden noundef zeroext i1 @_ZNK4Node7is_LoadEv(ptr noundef nonnull align 8 dereferenceable(52) %0) #1 comdat align 2 {
  %2 = alloca ptr, align 8
  store ptr %0, ptr %2, align 8
  %3 = load ptr, ptr %2, align 8
  %4 = getelementptr inbounds %class.Node, ptr %3, i32 0, i32 8
  %5 = load i32, ptr %4, align 4
  %6 = and i32 %5, 63
  %7 = icmp eq i32 %6, 48
  ret i1 %7
}

; Function Attrs: mustprogress nounwind uwtable
define hidden noundef zeroext i1 @_ZN14G1BarrierSetC218is_g1_pre_val_loadEP4Node(ptr noundef %0) #1 align 2 {
  %2 = alloca i1, align 1
  %3 = alloca ptr, align 8
  %4 = alloca i32, align 4
  %5 = alloca %class.SimpleDUIterator, align 8
  %6 = alloca ptr, align 8
  %7 = alloca ptr, align 8
  store ptr %0, ptr %3, align 8
  %8 = load ptr, ptr %3, align 8
  %9 = call noundef zeroext i1 @_ZNK4Node7is_LoadEv(ptr noundef nonnull align 8 dereferenceable(52) %8)
  br i1 %9, label %10, label %67

10:                                               ; preds = %1
  %11 = load ptr, ptr %3, align 8
  %12 = call noundef ptr @_ZNK4Node7as_LoadEv(ptr noundef nonnull align 8 dereferenceable(52) %11)
  %13 = call noundef zeroext i1 @_ZNK8LoadNode29has_pinned_control_dependencyEv(ptr noundef nonnull align 8 dereferenceable(72) %12)
  br i1 %13, label %14, label %67

14:                                               ; preds = %10
  %15 = load ptr, ptr %3, align 8
  %16 = call noundef i32 @_ZNK4Node6outcntEv(ptr noundef nonnull align 8 dereferenceable(52) %15)
  %17 = icmp eq i32 %16, 1
  br i1 %17, label %18, label %25

18:                                               ; preds = %14
  %19 = load ptr, ptr %3, align 8
  %20 = call noundef ptr @_ZNK4Node10unique_outEv(ptr noundef nonnull align 8 dereferenceable(52) %19)
  %21 = call noundef zeroext i1 @_ZNK4Node10is_DecodeNEv(ptr noundef nonnull align 8 dereferenceable(52) %20)
  br i1 %21, label %22, label %25

22:                                               ; preds = %18
  %23 = load ptr, ptr %3, align 8
  %24 = call noundef ptr @_ZNK4Node10unique_outEv(ptr noundef nonnull align 8 dereferenceable(52) %23)
  store ptr %24, ptr %3, align 8
  br label %25

25:                                               ; preds = %22, %18, %14
  %26 = load ptr, ptr %3, align 8
  %27 = call noundef i32 @_ZNK4Node6outcntEv(ptr noundef nonnull align 8 dereferenceable(52) %26)
  %28 = icmp eq i32 %27, 3
  br i1 %28, label %29, label %66

29:                                               ; preds = %25
  store i32 0, ptr %4, align 4
  %30 = load ptr, ptr %3, align 8
  call void @_ZN16SimpleDUIteratorC2EP4Node(ptr noundef nonnull align 8 dereferenceable(24) %5, ptr noundef %30)
  br label %31

31:                                               ; preds = %60, %29
  %32 = call noundef zeroext i1 @_ZN16SimpleDUIterator8has_nextEv(ptr noundef nonnull align 8 dereferenceable(24) %5)
  br i1 %32, label %33, label %61

33:                                               ; preds = %31
  %34 = call noundef ptr @_ZN16SimpleDUIterator3getEv(ptr noundef nonnull align 8 dereferenceable(24) %5)
  store ptr %34, ptr %6, align 8
  %35 = load ptr, ptr %6, align 8
  %36 = call noundef zeroext i1 @_ZNK4Node6is_CmpEv(ptr noundef nonnull align 8 dereferenceable(52) %35)
  br i1 %36, label %40, label %37

37:                                               ; preds = %33
  %38 = load ptr, ptr %6, align 8
  %39 = call noundef zeroext i1 @_ZNK4Node8is_StoreEv(ptr noundef nonnull align 8 dereferenceable(52) %38)
  br i1 %39, label %40, label %43

40:                                               ; preds = %37, %33
  %41 = load i32, ptr %4, align 4
  %42 = add nsw i32 %41, 1
  store i32 %42, ptr %4, align 4
  br label %59

43:                                               ; preds = %37
  %44 = load ptr, ptr %6, align 8
  %45 = call noundef zeroext i1 @_ZNK4Node11is_CallLeafEv(ptr noundef nonnull align 8 dereferenceable(52) %44)
  br i1 %45, label %46, label %58

46:                                               ; preds = %43
  %47 = load ptr, ptr %6, align 8
  %48 = call noundef ptr @_ZNK4Node11as_CallLeafEv(ptr noundef nonnull align 8 dereferenceable(52) %47)
  store ptr %48, ptr %7, align 8
  %49 = load ptr, ptr %7, align 8
  %50 = getelementptr inbounds %class.CallNode, ptr %49, i32 0, i32 5
  %51 = load ptr, ptr %50, align 8
  %52 = call i32 @strcmp(ptr noundef %51, ptr noundef @.str) #6
  %53 = icmp eq i32 %52, 0
  br i1 %53, label %54, label %57

54:                                               ; preds = %46
  %55 = load i32, ptr %4, align 4
  %56 = add nsw i32 %55, 1
  store i32 %56, ptr %4, align 4
  br label %57

57:                                               ; preds = %54, %46
  br label %58

58:                                               ; preds = %57, %43
  br label %59

59:                                               ; preds = %58, %40
  br label %60

60:                                               ; preds = %59
  call void @_ZN16SimpleDUIterator4nextEv(ptr noundef nonnull align 8 dereferenceable(24) %5)
  br label %31, !llvm.loop !8

61:                                               ; preds = %31
  %62 = load i32, ptr %4, align 4
  %63 = icmp eq i32 %62, 3
  br i1 %63, label %64, label %65

64:                                               ; preds = %61
  store i1 true, ptr %2, align 1
  br label %68

65:                                               ; preds = %61
  br label %66

66:                                               ; preds = %65, %25
  br label %67

67:                                               ; preds = %66, %10, %1
  store i1 false, ptr %2, align 1
  br label %68

68:                                               ; preds = %67, %64
  %69 = load i1, ptr %2, align 1
  ret i1 %69
}

; Function Attrs: mustprogress nounwind uwtable
define hidden noundef zeroext i1 @_ZNK14G1BarrierSetC222is_gc_pre_barrier_nodeEP4Node(ptr noundef nonnull align 8 dereferenceable(8) %0, ptr noundef %1) unnamed_addr #1 align 2 {
  %3 = alloca ptr, align 8
  %4 = alloca ptr, align 8
  store ptr %0, ptr %3, align 8
  store ptr %1, ptr %4, align 8
  %5 = load ptr, ptr %4, align 8
  %6 = call noundef zeroext i1 @_ZN14G1BarrierSetC218is_g1_pre_val_loadEP4Node(ptr noundef %5)
  ret i1 %6
}