; Function Attrs: mustprogress nofree nounwind willreturn memory(read, inaccessiblemem: none) uwtable
define hidden noundef zeroext i1 @_ZNK14G1BarrierSetC222is_gc_pre_barrier_nodeEP4Node(ptr nocapture nonnull readnone align 8 %0, ptr nocapture noundef readonly %1) unnamed_addr #3 align 2 {
  %3 = getelementptr inbounds i8, ptr %1, i64 44
  %4 = load i32, ptr %3, align 4
  %5 = and i32 %4, 63
  %6 = icmp eq i32 %5, 48
  br i1 %6, label %7, label %49

7:                                                ; preds = %2
  %8 = getelementptr inbounds i8, ptr %1, i64 56
  %9 = load i32, ptr %8, align 8
  %10 = icmp eq i32 %9, 0
  br i1 %10, label %11, label %49

11:                                               ; preds = %7
  %12 = getelementptr inbounds i8, ptr %1, i64 32
  %13 = load i32, ptr %12, align 8
  %14 = icmp eq i32 %13, 1
  br i1 %14, label %15, label %23

15:                                               ; preds = %11
  %16 = getelementptr inbounds i8, ptr %1, i64 16
  %17 = load ptr, ptr %16, align 8
  %18 = load ptr, ptr %17, align 8
  %19 = getelementptr inbounds i8, ptr %18, i64 44
  %20 = load i32, ptr %19, align 4
  %21 = and i32 %20, 1023
  %22 = icmp eq i32 %21, 772
  %spec.select19.i = select i1 %22, ptr %18, ptr %1
  %.phi.trans.insert.i = getelementptr inbounds i8, ptr %spec.select19.i, i64 32
  %.pre.i = load i32, ptr %.phi.trans.insert.i, align 8
  br label %23

23:                                               ; preds = %15, %11
  %24 = phi i32 [ %13, %11 ], [ %.pre.i, %15 ]
  %.015.i = phi ptr [ %1, %11 ], [ %spec.select19.i, %15 ]
  %25 = icmp eq i32 %24, 3
  br i1 %25, label %.lr.ph.preheader.i, label %49

.lr.ph.preheader.i:                               ; preds = %23
  %26 = getelementptr inbounds i8, ptr %.015.i, i64 16
  %27 = load ptr, ptr %26, align 8
  br label %.lr.ph.i

.lr.ph.i:                                         ; preds = %46, %.lr.ph.preheader.i
  %.01622.i = phi i32 [ %.1.i, %46 ], [ 0, %.lr.ph.preheader.i ]
  %.sroa.3.021.idx.i = phi i64 [ %.sroa.3.021.add.i, %46 ], [ 0, %.lr.ph.preheader.i ]
  %.sroa.3.021.ptr.i = getelementptr inbounds i8, ptr %27, i64 %.sroa.3.021.idx.i
  %28 = load ptr, ptr %.sroa.3.021.ptr.i, align 8
  %29 = getelementptr inbounds i8, ptr %28, i64 44
  %30 = load i32, ptr %29, align 4
  %31 = and i32 %30, 255
  %32 = icmp eq i32 %31, 192
  %33 = and i32 %30, 127
  %34 = icmp eq i32 %33, 80
  %or.cond.i = or i1 %32, %34
  br i1 %or.cond.i, label %35, label %37

35:                                               ; preds = %.lr.ph.i
  %36 = add nsw i32 %.01622.i, 1
  br label %46

37:                                               ; preds = %.lr.ph.i
  %38 = and i32 %30, 63
  %39 = icmp eq i32 %38, 55
  br i1 %39, label %40, label %46

40:                                               ; preds = %37
  %41 = getelementptr inbounds i8, ptr %28, i64 120
  %42 = load ptr, ptr %41, align 8
  %43 = tail call i32 @strcmp(ptr noundef nonnull dereferenceable(1) %42, ptr noundef nonnull dereferenceable(26) @.str) #7
  %44 = icmp eq i32 %43, 0
  %45 = zext i1 %44 to i32
  %spec.select.i = add nsw i32 %.01622.i, %45
  br label %46

46:                                               ; preds = %40, %37, %35
  %.1.i = phi i32 [ %36, %35 ], [ %.01622.i, %37 ], [ %spec.select.i, %40 ]
  %.sroa.3.021.add.i = add nuw nsw i64 %.sroa.3.021.idx.i, 8
  %47 = icmp ult i64 %.sroa.3.021.idx.i, 16
  br i1 %47, label %.lr.ph.i, label %._crit_edge.i, !llvm.loop !8

._crit_edge.i:                                    ; preds = %46
  %48 = icmp eq i32 %.1.i, 3
  br i1 %48, label %_ZN14G1BarrierSetC218is_g1_pre_val_loadEP4Node.exit, label %49

49:                                               ; preds = %._crit_edge.i, %23, %7, %2
  br label %_ZN14G1BarrierSetC218is_g1_pre_val_loadEP4Node.exit

_ZN14G1BarrierSetC218is_g1_pre_val_loadEP4Node.exit: ; preds = %._crit_edge.i, %49
  %.0.i = phi i1 [ false, %49 ], [ true, %._crit_edge.i ]
  ret i1 %.0.i
}